; Function Attrs: mustprogress nounwind uwtable
define void @_ZN7testing10TestResult20ClearTestPartResultsEv(ptr noundef nonnull align 8 captures(none) dereferenceable(128) %0) local_unnamed_addr #10 align 2 personality ptr @__gxx_personality_v0 {
  %2 = getelementptr inbounds nuw i8, ptr %0, i64 56
  %3 = load ptr, ptr %2, align 8, !tbaa !949
  %4 = getelementptr inbounds nuw i8, ptr %0, i64 64
  %5 = load ptr, ptr %4, align 8, !tbaa !947
  %.not.i.i = icmp eq ptr %5, %3
  br i1 %.not.i.i, label %_ZNSt6vectorIN7testing14TestPartResultESaIS1_EE5clearEv.exit, label %.lr.ph.i.i.i.i.i

.lr.ph.i.i.i.i.i:                                 ; preds = %1, %_ZSt8_DestroyIN7testing14TestPartResultEEvPT_.exit.i.i.i.i.i
  %.05.i.i.i.i.i = phi ptr [ %33, %_ZSt8_DestroyIN7testing14TestPartResultEEvPT_.exit.i.i.i.i.i ], [ %3, %1 ]
  %6 = getelementptr inbounds nuw i8, ptr %.05.i.i.i.i.i, i64 80
  %7 = load ptr, ptr %6, align 8, !tbaa !22
  %8 = getelementptr inbounds nuw i8, ptr %.05.i.i.i.i.i, i64 96
  %9 = icmp eq ptr %7, %8
  br i1 %9, label %_ZNKSt7__cxx1112basic_stringIcSt11char_traitsIcESaIcEE11_M_is_localEv.exit.thread.i.i.i.i.i.i.i.i.i, label %_ZNKSt7__cxx1112basic_stringIcSt11char_traitsIcESaIcEE11_M_is_localEv.exit.i.i.i.i.i.i.i.i.i

_ZNKSt7__cxx1112basic_stringIcSt11char_traitsIcESaIcEE11_M_is_localEv.exit.thread.i.i.i.i.i.i.i.i.i: ; preds = %.lr.ph.i.i.i.i.i
  %10 = getelementptr inbounds nuw i8, ptr %.05.i.i.i.i.i, i64 88
  %11 = load i64, ptr %10, align 8, !tbaa !25
  %12 = icmp ult i64 %11, 16
  tail call void @llvm.assume(i1 %12)
  br label %_ZNSt7__cxx1112basic_stringIcSt11char_traitsIcESaIcEED2Ev.exit.i.i.i.i.i.i.i

_ZNKSt7__cxx1112basic_stringIcSt11char_traitsIcESaIcEE11_M_is_localEv.exit.i.i.i.i.i.i.i.i.i: ; preds = %.lr.ph.i.i.i.i.i
  %13 = load i64, ptr %8, align 8, !tbaa !27
  %14 = add i64 %13, 1
  tail call void @_ZdlPvm(ptr noundef %7, i64 noundef %14) #58
  br label %_ZNSt7__cxx1112basic_stringIcSt11char_traitsIcESaIcEED2Ev.exit.i.i.i.i.i.i.i

_ZNSt7__cxx1112basic_stringIcSt11char_traitsIcESaIcEED2Ev.exit.i.i.i.i.i.i.i: ; preds = %_ZNKSt7__cxx1112basic_stringIcSt11char_traitsIcESaIcEE11_M_is_localEv.exit.i.i.i.i.i.i.i.i.i, %_ZNKSt7__cxx1112basic_stringIcSt11char_traitsIcESaIcEE11_M_is_localEv.exit.thread.i.i.i.i.i.i.i.i.i
  %15 = getelementptr inbounds nuw i8, ptr %.05.i.i.i.i.i, i64 48
  %16 = load ptr, ptr %15, align 8, !tbaa !22
  %17 = getelementptr inbounds nuw i8, ptr %.05.i.i.i.i.i, i64 64
  %18 = icmp eq ptr %16, %17
  br i1 %18, label %_ZNKSt7__cxx1112basic_stringIcSt11char_traitsIcESaIcEE11_M_is_localEv.exit.thread.i.i2.i.i.i.i.i.i.i, label %_ZNKSt7__cxx1112basic_stringIcSt11char_traitsIcESaIcEE11_M_is_localEv.exit.i.i1.i.i.i.i.i.i.i

_ZNKSt7__cxx1112basic_stringIcSt11char_traitsIcESaIcEE11_M_is_localEv.exit.thread.i.i2.i.i.i.i.i.i.i: ; preds = %_ZNSt7__cxx1112basic_stringIcSt11char_traitsIcESaIcEED2Ev.exit.i.i.i.i.i.i.i
  %19 = getelementptr inbounds nuw i8, ptr %.05.i.i.i.i.i, i64 56
  %20 = load i64, ptr %19, align 8, !tbaa !25
  %21 = icmp ult i64 %20, 16
  tail call void @llvm.assume(i1 %21)
  br label %_ZNSt7__cxx1112basic_stringIcSt11char_traitsIcESaIcEED2Ev.exit3.i.i.i.i.i.i.i

_ZNKSt7__cxx1112basic_stringIcSt11char_traitsIcESaIcEE11_M_is_localEv.exit.i.i1.i.i.i.i.i.i.i: ; preds = %_ZNSt7__cxx1112basic_stringIcSt11char_traitsIcESaIcEED2Ev.exit.i.i.i.i.i.i.i
  %22 = load i64, ptr %17, align 8, !tbaa !27
  %23 = add i64 %22, 1
  tail call void @_ZdlPvm(ptr noundef %16, i64 noundef %23) #58
  br label %_ZNSt7__cxx1112basic_stringIcSt11char_traitsIcESaIcEED2Ev.exit3.i.i.i.i.i.i.i

_ZNSt7__cxx1112basic_stringIcSt11char_traitsIcESaIcEED2Ev.exit3.i.i.i.i.i.i.i: ; preds = %_ZNKSt7__cxx1112basic_stringIcSt11char_traitsIcESaIcEE11_M_is_localEv.exit.i.i1.i.i.i.i.i.i.i, %_ZNKSt7__cxx1112basic_stringIcSt11char_traitsIcESaIcEE11_M_is_localEv.exit.thread.i.i2.i.i.i.i.i.i.i
  %24 = getelementptr inbounds nuw i8, ptr %.05.i.i.i.i.i, i64 8
  %25 = load ptr, ptr %24, align 8, !tbaa !22
  %26 = getelementptr inbounds nuw i8, ptr %.05.i.i.i.i.i, i64 24
  %27 = icmp eq ptr %25, %26
  br i1 %27, label %_ZNKSt7__cxx1112basic_stringIcSt11char_traitsIcESaIcEE11_M_is_localEv.exit.thread.i.i5.i.i.i.i.i.i.i, label %_ZNKSt7__cxx1112basic_stringIcSt11char_traitsIcESaIcEE11_M_is_localEv.exit.i.i4.i.i.i.i.i.i.i

_ZNKSt7__cxx1112basic_stringIcSt11char_traitsIcESaIcEE11_M_is_localEv.exit.thread.i.i5.i.i.i.i.i.i.i: ; preds = %_ZNSt7__cxx1112basic_stringIcSt11char_traitsIcESaIcEED2Ev.exit3.i.i.i.i.i.i.i
  %28 = getelementptr inbounds nuw i8, ptr %.05.i.i.i.i.i, i64 16
  %29 = load i64, ptr %28, align 8, !tbaa !25
  %30 = icmp ult i64 %29, 16
  tail call void @llvm.assume(i1 %30)
  br label %_ZSt8_DestroyIN7testing14TestPartResultEEvPT_.exit.i.i.i.i.i

_ZNKSt7__cxx1112basic_stringIcSt11char_traitsIcESaIcEE11_M_is_localEv.exit.i.i4.i.i.i.i.i.i.i: ; preds = %_ZNSt7__cxx1112basic_stringIcSt11char_traitsIcESaIcEED2Ev.exit3.i.i.i.i.i.i.i
  %31 = load i64, ptr %26, align 8, !tbaa !27
  %32 = add i64 %31, 1
  tail call void @_ZdlPvm(ptr noundef %25, i64 noundef %32) #58
  br label %_ZSt8_DestroyIN7testing14TestPartResultEEvPT_.exit.i.i.i.i.i

_ZSt8_DestroyIN7testing14TestPartResultEEvPT_.exit.i.i.i.i.i: ; preds = %_ZNKSt7__cxx1112basic_stringIcSt11char_traitsIcESaIcEE11_M_is_localEv.exit.i.i4.i.i.i.i.i.i.i, %_ZNKSt7__cxx1112basic_stringIcSt11char_traitsIcESaIcEE11_M_is_localEv.exit.thread.i.i5.i.i.i.i.i.i.i
  %33 = getelementptr inbounds nuw i8, ptr %.05.i.i.i.i.i, i64 112
  %.not.i.i.i.i.i = icmp eq ptr %33, %5
  br i1 %.not.i.i.i.i.i, label %_ZSt8_DestroyIPN7testing14TestPartResultES1_EvT_S3_RSaIT0_E.exit.i.i, label %.lr.ph.i.i.i.i.i, !llvm.loop !1370

_ZSt8_DestroyIPN7testing14TestPartResultES1_EvT_S3_RSaIT0_E.exit.i.i: ; preds = %_ZSt8_DestroyIN7testing14TestPartResultEEvPT_.exit.i.i.i.i.i
  store ptr %3, ptr %4, align 8, !tbaa !947
  br label %_ZNSt6vectorIN7testing14TestPartResultESaIS1_EE5clearEv.exit

_ZNSt6vectorIN7testing14TestPartResultESaIS1_EE5clearEv.exit: ; preds = %1, %_ZSt8_DestroyIPN7testing14TestPartResultES1_EvT_S3_RSaIT0_E.exit.i.i
  ret void
}